target datalayout = "e-m:e-p270:32:32-p271:32:32-p272:64:64-i64:64-i128:128-f80:128-n8:16:32:64-S128"
target triple = "x86_64-unknown-linux-gnu"

%"class.hermes::vm::JSString" = type { %"class.hermes::vm::JSObject", %"class.hermes::vm::GCPointer.7" }
%"class.hermes::vm::JSObject" = type { %"class.hermes::vm::GCCell", %"struct.hermes::vm::ObjectFlags", %"class.hermes::vm::GCPointer", %"class.hermes::vm::GCPointer.5", %"class.hermes::vm::GCPointer.6" }
%"class.hermes::vm::GCCell" = type { %union.anon.4 }
%union.anon.4 = type { %"class.hermes::vm::KindAndSize" }
%"class.hermes::vm::KindAndSize" = type { i32 }
%"struct.hermes::vm::ObjectFlags" = type { i32 }
%"class.hermes::vm::GCPointer" = type { %"class.hermes::vm::GCPointerBase" }
%"class.hermes::vm::GCPointerBase" = type { %"class.hermes::vm::CompressedPointer" }
%"class.hermes::vm::CompressedPointer" = type { %"class.hermes::vm::BasedPointer" }
%"class.hermes::vm::BasedPointer" = type { i32 }
%"class.hermes::vm::GCPointer.5" = type { %"class.hermes::vm::GCPointerBase" }
%"class.hermes::vm::GCPointer.6" = type { %"class.hermes::vm::GCPointerBase" }
%"class.hermes::vm::GCPointer.7" = type { %"class.hermes::vm::GCPointerBase" }
%"class.hermes::vm::StringPrimitive" = type { %"class.hermes::vm::VariableSizeRuntimeCell", i32 }
%"class.hermes::vm::VariableSizeRuntimeCell" = type { %"class.hermes::vm::GCCell" }

; Function Attrs: mustprogress nounwind uwtable
define linkonce_odr hidden noundef i32 @_ZNK6hermes2vm12BasedPointer11getRawValueEv(ptr noundef nonnull align 4 dereferenceable(4) %this) #0 comdat align 2 {
entry:
  %this.addr = alloca ptr, align 8
  store ptr %this, ptr %this.addr, align 8
  %this1 = load ptr, ptr %this.addr, align 8
  %raw_ = getelementptr inbounds %"class.hermes::vm::BasedPointer", ptr %this1, i32 0, i32 0
  %0 = load i32, ptr %raw_, align 4
  ret i32 %0
}

; Function Attrs: mustprogress nounwind uwtable
define linkonce_odr hidden noundef ptr @_ZNK6hermes2vm11PointerBase21basedToPointerNonNullENS0_12BasedPointerE(ptr noundef nonnull align 1 dereferenceable(1) %this, i32 %ptr.coerce) #0 comdat align 2 {
entry:
  %ptr = alloca %"class.hermes::vm::BasedPointer", align 4
  %this.addr = alloca ptr, align 8
  %addr = alloca i64, align 8
  %coerce.dive = getelementptr inbounds %"class.hermes::vm::BasedPointer", ptr %ptr, i32 0, i32 0
  store i32 %ptr.coerce, ptr %coerce.dive, align 4
  store ptr %this, ptr %this.addr, align 8
  %this1 = load ptr, ptr %this.addr, align 8
  %0 = ptrtoint ptr %this1 to i64
  %call = call noundef i32 @_ZNK6hermes2vm12BasedPointer11getRawValueEv(ptr noundef nonnull align 4 dereferenceable(4) %ptr)
  %conv = zext i32 %call to i64
  %add = add i64 %0, %conv
  store i64 %add, ptr %addr, align 8
  %1 = load i64, ptr %addr, align 8
  %2 = inttoptr i64 %1 to ptr
  ret ptr %2
}

; Function Attrs: mustprogress nounwind uwtable
define linkonce_odr hidden noundef zeroext i1 @_ZNK6hermes2vm12BasedPointercvbEv(ptr noundef nonnull align 4 dereferenceable(4) %this) #0 comdat align 2 {
entry:
  %this.addr = alloca ptr, align 8
  store ptr %this, ptr %this.addr, align 8
  %this1 = load ptr, ptr %this.addr, align 8
  %raw_ = getelementptr inbounds %"class.hermes::vm::BasedPointer", ptr %this1, i32 0, i32 0
  %0 = load i32, ptr %raw_, align 4
  %cmp = icmp ne i32 %0, 0
  ret i1 %cmp
}

; Function Attrs: mustprogress nounwind uwtable
define linkonce_odr hidden noundef ptr @_ZNK6hermes2vm11PointerBase14basedToPointerENS0_12BasedPointerE(ptr noundef nonnull align 1 dereferenceable(1) %this, i32 %ptr.coerce) #0 comdat align 2 {
entry:
  %ptr = alloca %"class.hermes::vm::BasedPointer", align 4
  %this.addr = alloca ptr, align 8
  %agg.tmp = alloca %"class.hermes::vm::BasedPointer", align 4
  %coerce.dive = getelementptr inbounds %"class.hermes::vm::BasedPointer", ptr %ptr, i32 0, i32 0
  store i32 %ptr.coerce, ptr %coerce.dive, align 4
  store ptr %this, ptr %this.addr, align 8
  %this1 = load ptr, ptr %this.addr, align 8
  %call = call noundef zeroext i1 @_ZNK6hermes2vm12BasedPointercvbEv(ptr noundef nonnull align 4 dereferenceable(4) %ptr)
  br i1 %call, label %cond.true, label %cond.false

cond.true:                                        ; preds = %entry
  call void @llvm.memcpy.p0.p0.i64(ptr align 4 %agg.tmp, ptr align 4 %ptr, i64 4, i1 false)
  %coerce.dive2 = getelementptr inbounds %"class.hermes::vm::BasedPointer", ptr %agg.tmp, i32 0, i32 0
  %0 = load i32, ptr %coerce.dive2, align 4
  %call3 = call noundef ptr @_ZNK6hermes2vm11PointerBase21basedToPointerNonNullENS0_12BasedPointerE(ptr noundef nonnull align 1 dereferenceable(1) %this1, i32 %0)
  br label %cond.end

cond.false:                                       ; preds = %entry
  br label %cond.end

cond.end:                                         ; preds = %cond.false, %cond.true
  %cond = phi ptr [ %call3, %cond.true ], [ null, %cond.false ]
  ret ptr %cond
}

; Function Attrs: mustprogress nounwind uwtable
define linkonce_odr hidden noundef ptr @_ZN6hermes2vm17CompressedPointer20storageTypeToPointerENS0_12BasedPointerERNS0_11PointerBaseE(i32 %st.coerce, ptr noundef nonnull align 1 dereferenceable(1) %base) #0 comdat align 2 {
entry:
  %st = alloca %"class.hermes::vm::BasedPointer", align 4
  %base.addr = alloca ptr, align 8
  %agg.tmp = alloca %"class.hermes::vm::BasedPointer", align 4
  %coerce.dive = getelementptr inbounds %"class.hermes::vm::BasedPointer", ptr %st, i32 0, i32 0
  store i32 %st.coerce, ptr %coerce.dive, align 4
  store ptr %base, ptr %base.addr, align 8
  %0 = load ptr, ptr %base.addr, align 8
  call void @llvm.memcpy.p0.p0.i64(ptr align 4 %agg.tmp, ptr align 4 %st, i64 4, i1 false)
  %coerce.dive1 = getelementptr inbounds %"class.hermes::vm::BasedPointer", ptr %agg.tmp, i32 0, i32 0
  %1 = load i32, ptr %coerce.dive1, align 4
  %call = call noundef ptr @_ZNK6hermes2vm11PointerBase14basedToPointerENS0_12BasedPointerE(ptr noundef nonnull align 1 dereferenceable(1) %0, i32 %1)
  ret ptr %call
}

; Function Attrs: mustprogress nounwind uwtable
define linkonce_odr hidden noundef ptr @_ZN6hermes2vm14vmcast_or_nullINS0_15StringPrimitiveEEEPT_PNS0_6GCCellE(ptr noundef %cell) #0 comdat {
entry:
  %cell.addr = alloca ptr, align 8
  store ptr %cell, ptr %cell.addr, align 8
  %0 = load ptr, ptr %cell.addr, align 8
  ret ptr %0
}

; Function Attrs: mustprogress nounwind uwtable
define linkonce_odr hidden noundef ptr @_ZNK6hermes2vm17CompressedPointer3getERNS0_11PointerBaseE(ptr noundef nonnull align 4 dereferenceable(4) %this, ptr noundef nonnull align 1 dereferenceable(1) %base) #0 comdat align 2 {
entry:
  %this.addr = alloca ptr, align 8
  %base.addr = alloca ptr, align 8
  %agg.tmp = alloca %"class.hermes::vm::BasedPointer", align 4
  store ptr %this, ptr %this.addr, align 8
  store ptr %base, ptr %base.addr, align 8
  %this1 = load ptr, ptr %this.addr, align 8
  %ptr_ = getelementptr inbounds %"class.hermes::vm::CompressedPointer", ptr %this1, i32 0, i32 0
  call void @llvm.memcpy.p0.p0.i64(ptr align 4 %agg.tmp, ptr align 4 %ptr_, i64 4, i1 false)
  %0 = load ptr, ptr %base.addr, align 8
  %coerce.dive = getelementptr inbounds %"class.hermes::vm::BasedPointer", ptr %agg.tmp, i32 0, i32 0
  %1 = load i32, ptr %coerce.dive, align 4
  %call = call noundef ptr @_ZN6hermes2vm17CompressedPointer20storageTypeToPointerENS0_12BasedPointerERNS0_11PointerBaseE(i32 %1, ptr noundef nonnull align 1 dereferenceable(1) %0)
  ret ptr %call
}

; Function Attrs: mustprogress nounwind uwtable
define linkonce_odr hidden noundef ptr @_ZN4llvh16cast_convert_valIN6hermes2vm8JSStringEPNS2_6GCCellES5_E4doitERKS5_(ptr noundef nonnull align 8 dereferenceable(8) %Val) #0 comdat align 2 {
entry:
  %Val.addr = alloca ptr, align 8
  %Res2 = alloca ptr, align 8
  store ptr %Val, ptr %Val.addr, align 8
  %0 = load ptr, ptr %Val.addr, align 8
  %1 = load ptr, ptr %0, align 8
  store ptr %1, ptr %Res2, align 8
  %2 = load ptr, ptr %Res2, align 8
  ret ptr %2
}

; Function Attrs: mustprogress nounwind uwtable
define linkonce_odr hidden noundef ptr @_ZNK6hermes2vm9GCPointerINS0_15StringPrimitiveEE3getERNS0_11PointerBaseE(ptr noundef nonnull align 4 dereferenceable(4) %this, ptr noundef nonnull align 1 dereferenceable(1) %base) #0 comdat align 2 {
entry:
  %this.addr = alloca ptr, align 8
  %base.addr = alloca ptr, align 8
  store ptr %this, ptr %this.addr, align 8
  store ptr %base, ptr %base.addr, align 8
  %this1 = load ptr, ptr %this.addr, align 8
  %0 = load ptr, ptr %base.addr, align 8
  %call = call noundef ptr @_ZNK6hermes2vm17CompressedPointer3getERNS0_11PointerBaseE(ptr noundef nonnull align 4 dereferenceable(4) %this1, ptr noundef nonnull align 1 dereferenceable(1) %0)
  %call2 = call noundef ptr @_ZN6hermes2vm14vmcast_or_nullINS0_15StringPrimitiveEEEPT_PNS0_6GCCellE(ptr noundef %call)
  ret ptr %call2
}

; Function Attrs: mustprogress nounwind uwtable
define linkonce_odr hidden noundef ptr @_ZN4llvh4castIN6hermes2vm8JSStringENS2_6GCCellEEENS_10cast_rettyIT_PT0_E8ret_typeES8_(ptr noundef %Val) #0 comdat {
entry:
  %Val.addr = alloca ptr, align 8
  store ptr %Val, ptr %Val.addr, align 8
  %call = call noundef ptr @_ZN4llvh16cast_convert_valIN6hermes2vm8JSStringEPNS2_6GCCellES5_E4doitERKS5_(ptr noundef nonnull align 8 dereferenceable(8) %Val.addr)
  ret ptr %call
}

; Function Attrs: mustprogress nounwind uwtable
define linkonce_odr hidden noundef i32 @_ZNK6hermes2vm15StringPrimitive15getStringLengthEv(ptr noundef nonnull align 4 dereferenceable(8) %this) #0 comdat align 2 {
entry:
  %this.addr = alloca ptr, align 8
  store ptr %this, ptr %this.addr, align 8
  %this1 = load ptr, ptr %this.addr, align 8
  %lengthAndUniquedFlag_ = getelementptr inbounds %"class.hermes::vm::StringPrimitive", ptr %this1, i32 0, i32 1
  %0 = load i32, ptr %lengthAndUniquedFlag_, align 4
  %and = and i32 %0, 2147483647
  ret i32 %and
}

; Function Attrs: mustprogress nounwind uwtable
define linkonce_odr hidden noundef ptr @_ZN6hermes2vm8JSString18getPrimitiveStringEPKS1_RNS0_7RuntimeE(ptr noundef %self, ptr noundef nonnull align 8 dereferenceable(9832) %runtime) #0 comdat align 2 {
entry:
  %self.addr = alloca ptr, align 8
  %runtime.addr = alloca ptr, align 8
  store ptr %self, ptr %self.addr, align 8
  store ptr %runtime, ptr %runtime.addr, align 8
  %0 = load ptr, ptr %self.addr, align 8
  %primitiveValue_ = getelementptr inbounds %"class.hermes::vm::JSString", ptr %0, i32 0, i32 1
  %1 = load ptr, ptr %runtime.addr, align 8
  %call = call noundef ptr @_ZNK6hermes2vm9GCPointerINS0_15StringPrimitiveEE3getERNS0_11PointerBaseE(ptr noundef nonnull align 4 dereferenceable(4) %primitiveValue_, ptr noundef nonnull align 1 dereferenceable(1) %1)
  ret ptr %call
}

; Function Attrs: mustprogress nounwind uwtable
define linkonce_odr hidden noundef ptr @_ZN6hermes2vm6vmcastINS0_8JSStringEEEPT_PNS0_6GCCellE(ptr noundef %cell) #0 comdat {
entry:
  %cell.addr = alloca ptr, align 8
  store ptr %cell, ptr %cell.addr, align 8
  %0 = load ptr, ptr %cell.addr, align 8
  %call = call noundef ptr @_ZN4llvh4castIN6hermes2vm8JSStringENS2_6GCCellEEENS_10cast_rettyIT_PT0_E8ret_typeES8_(ptr noundef %0)
  ret ptr %call
}

; Function Attrs: mustprogress nounwind uwtable
define hidden noundef zeroext i1 @_ZN6hermes2vm8JSString19_haveOwnIndexedImplEPNS0_8JSObjectERNS0_7RuntimeEj(ptr noundef %self, ptr noundef nonnull align 8 dereferenceable(9832) %runtime, i32 noundef %index) #0 align 2 {
entry:
  %self.addr = alloca ptr, align 8
  %runtime.addr = alloca ptr, align 8
  %index.addr = alloca i32, align 4
  %str = alloca ptr, align 8
  store ptr %self, ptr %self.addr, align 8
  store ptr %runtime, ptr %runtime.addr, align 8
  store i32 %index, ptr %index.addr, align 4
  %0 = load ptr, ptr %self.addr, align 8
  %call = call noundef ptr @_ZN6hermes2vm6vmcastINS0_8JSStringEEEPT_PNS0_6GCCellE(ptr noundef %0)
  %1 = load ptr, ptr %runtime.addr, align 8
  %call1 = call noundef ptr @_ZN6hermes2vm8JSString18getPrimitiveStringEPKS1_RNS0_7RuntimeE(ptr noundef %call, ptr noundef nonnull align 8 dereferenceable(9832) %1)
  store ptr %call1, ptr %str, align 8
  %2 = load i32, ptr %index.addr, align 4
  %3 = load ptr, ptr %str, align 8
  %call2 = call noundef i32 @_ZNK6hermes2vm15StringPrimitive15getStringLengthEv(ptr noundef nonnull align 4 dereferenceable(8) %3)
  %cmp = icmp ult i32 %2, %call2
  ret i1 %cmp
}