; Function Attrs: mustprogress nofree norecurse nosync nounwind willreturn memory(read, inaccessiblemem: none) uwtable
define hidden noundef zeroext i1 @_ZN6hermes2vm8JSString19_haveOwnIndexedImplEPNS0_8JSObjectERNS0_7RuntimeEj(ptr noundef readonly captures(none) %self, ptr noundef nonnull align 8 dereferenceable(9832) %runtime, i32 noundef %index) #0 align 2 {
entry:
  %primitiveValue_.i = getelementptr inbounds nuw i8, ptr %self, i64 20
  %agg.tmp.sroa.0.0.copyload.i.i.i = load i32, ptr %primitiveValue_.i, align 4
  %cmp.i.not.i.i.i.i.i = icmp eq i32 %agg.tmp.sroa.0.0.copyload.i.i.i, 0
  %0 = ptrtoint ptr %runtime to i64
  %conv.i.i.i.i.i.i = zext i32 %agg.tmp.sroa.0.0.copyload.i.i.i to i64
  %add.i.i.i.i.i.i = add i64 %conv.i.i.i.i.i.i, %0
  %1 = inttoptr i64 %add.i.i.i.i.i.i to ptr
  %cond.i.i.i.i.i = select i1 %cmp.i.not.i.i.i.i.i, ptr null, ptr %1
  %lengthAndUniquedFlag_.i = getelementptr inbounds nuw i8, ptr %cond.i.i.i.i.i, i64 4
  %2 = load i32, ptr %lengthAndUniquedFlag_.i, align 4
  %and.i = and i32 %2, 2147483647
  %cmp = icmp ult i32 %index, %and.i
  ret i1 %cmp
}